target datalayout = "e-m:e-p270:32:32-p271:32:32-p272:64:64-i64:64-i128:128-f80:128-n8:16:32:64-S128"
target triple = "x86_64-pc-linux-gnu"

%"struct.duckdb::LogicalType" = type { i8, i8, %"class.duckdb::shared_ptr" }
%"class.duckdb::shared_ptr" = type { %"class.std::shared_ptr" }
%"class.std::shared_ptr" = type { %"class.std::__shared_ptr" }
%"class.std::__shared_ptr" = type { ptr, %"class.std::__shared_count" }
%"class.std::__shared_count" = type { ptr }
%"class.std::__cxx11::basic_string" = type { %"struct.std::__cxx11::basic_string<char>::_Alloc_hider", i64, %union.anon }
%"struct.std::__cxx11::basic_string<char>::_Alloc_hider" = type { ptr }
%union.anon = type { i64, [8 x i8] }
%"class.duckdb_apache::thrift::TBase" = type { ptr }
%"struct.duckdb::hugeint_t" = type { i64, i64 }
%"class.duckdb::Value" = type { %"struct.duckdb::LogicalType", i8, %"union.duckdb::Value::Val", %"class.duckdb::shared_ptr.371" }
%"union.duckdb::Value::Val" = type { %"struct.duckdb::hugeint_t" }
%"class.duckdb::shared_ptr.371" = type { %"class.std::shared_ptr.372" }
%"class.std::shared_ptr.372" = type { %"class.std::__shared_ptr.373" }
%"class.std::__shared_ptr.373" = type { ptr, %"class.std::__shared_count" }
%"class.duckdb_parquet::Statistics" = type <{ %"class.duckdb_apache::thrift::TBase", %"class.std::__cxx11::basic_string", %"class.std::__cxx11::basic_string", i64, i64, %"class.std::__cxx11::basic_string", %"class.std::__cxx11::basic_string", i8, i8, %"struct.duckdb_parquet::_Statistics__isset", [5 x i8] }>
%"struct.duckdb_parquet::_Statistics__isset" = type { i8 }
%"class.duckdb::TableFilter" = type <{ ptr, i8, [7 x i8] }>
%"class.duckdb::TableFilter.base" = type <{ ptr, i8 }>
%"class.duckdb::ConstantFilter" = type { %"class.duckdb::TableFilter.base", i8, %"class.duckdb::Value" }

; Function Attrs: mustprogress nounwind uwtable
define available_externally noundef ptr @_ZNKSt7__cxx1112basic_stringIcSt11char_traitsIcESaIcEE7_M_dataEv(ptr noundef nonnull align 8 dereferenceable(32) %0) #6 align 2 {
  %2 = alloca ptr, align 8
  store ptr %0, ptr %2, align 8, !tbaa !167
  %3 = load ptr, ptr %2, align 8
  %4 = getelementptr inbounds nuw %"class.std::__cxx11::basic_string", ptr %3, i32 0, i32 0
  %5 = getelementptr inbounds nuw %"struct.std::__cxx11::basic_string<char>::_Alloc_hider", ptr %4, i32 0, i32 0
  %6 = load ptr, ptr %5, align 8, !tbaa !988
  ret ptr %6
}

; Function Attrs: mustprogress nounwind uwtable
define available_externally noundef i64 @_ZNKSt7__cxx1112basic_stringIcSt11char_traitsIcESaIcEE4sizeEv(ptr noundef nonnull align 8 dereferenceable(32) %0) #6 align 2 {
  %2 = alloca ptr, align 8
  store ptr %0, ptr %2, align 8, !tbaa !167
  %3 = load ptr, ptr %2, align 8
  %4 = getelementptr inbounds nuw %"class.std::__cxx11::basic_string", ptr %3, i32 0, i32 1
  %5 = load i64, ptr %4, align 8, !tbaa !984
  ret i64 %5
}

; Function Attrs: mustprogress nounwind uwtable
define linkonce_odr noundef ptr @_ZN6duckdb19const_data_ptr_castIcEEPKhPKT_(ptr noundef %0) #6 comdat {
  %2 = alloca ptr, align 8
  store ptr %0, ptr %2, align 8, !tbaa !168
  %3 = load ptr, ptr %2, align 8, !tbaa !168
  ret ptr %3
}

; Function Attrs: mustprogress nounwind uwtable
define available_externally noundef ptr @_ZNKSt7__cxx1112basic_stringIcSt11char_traitsIcESaIcEE5c_strEv(ptr noundef nonnull align 8 dereferenceable(32) %0) #6 align 2 {
  %2 = alloca ptr, align 8
  store ptr %0, ptr %2, align 8, !tbaa !167
  %3 = load ptr, ptr %2, align 8
  %4 = call noundef ptr @_ZNKSt7__cxx1112basic_stringIcSt11char_traitsIcESaIcEE7_M_dataEv(ptr noundef nonnull align 8 dereferenceable(32) %3)
  ret ptr %4
}

; Function Attrs: mustprogress uwtable
define internal noundef zeroext i8 @_ZN6duckdbL24CheckParquetStringFilterERNS_14BaseStatisticsERKN14duckdb_parquet10StatisticsERNS_11TableFilterE(ptr noundef nonnull align 8 dereferenceable(88) %0, ptr noundef nonnull align 8 dereferenceable(155) %1, ptr noundef nonnull align 8 dereferenceable(9) %2) #4 {
  %4 = alloca i8, align 1
  %5 = alloca ptr, align 8
  %6 = alloca ptr, align 8
  %7 = alloca ptr, align 8
  %8 = alloca ptr, align 8
  %9 = alloca ptr, align 8
  %10 = alloca ptr, align 8
  store ptr %0, ptr %5, align 8, !tbaa !361
  store ptr %1, ptr %6, align 8, !tbaa !677
  store ptr %2, ptr %7, align 8, !tbaa !641
  %11 = load ptr, ptr %7, align 8, !tbaa !641
  %12 = getelementptr inbounds nuw %"class.duckdb::TableFilter", ptr %11, i32 0, i32 1
  %13 = load i8, ptr %12, align 8, !tbaa !646
  %14 = icmp eq i8 %13, 0
  br i1 %14, label %15, label %39

15:                                               ; preds = %3
  call void @llvm.lifetime.start.p0(i64 8, ptr %8) #3
  %16 = load ptr, ptr %7, align 8, !tbaa !641
  %17 = call noundef nonnull align 8 dereferenceable(80) ptr @_ZN6duckdb11TableFilter4CastINS_14ConstantFilterEEERT_v(ptr noundef nonnull align 8 dereferenceable(9) %16)
  store ptr %17, ptr %8, align 8, !tbaa !679
  call void @llvm.lifetime.start.p0(i64 8, ptr %9) #3
  %18 = load ptr, ptr %6, align 8, !tbaa !677
  %19 = getelementptr inbounds nuw %"class.duckdb_parquet::Statistics", ptr %18, i32 0, i32 6
  store ptr %19, ptr %9, align 8, !tbaa !167
  call void @llvm.lifetime.start.p0(i64 8, ptr %10) #3
  %20 = load ptr, ptr %6, align 8, !tbaa !677
  %21 = getelementptr inbounds nuw %"class.duckdb_parquet::Statistics", ptr %20, i32 0, i32 5
  store ptr %21, ptr %10, align 8, !tbaa !167
  %22 = load ptr, ptr %9, align 8, !tbaa !167
  %23 = call noundef ptr @_ZNKSt7__cxx1112basic_stringIcSt11char_traitsIcESaIcEE5c_strEv(ptr noundef nonnull align 8 dereferenceable(32) %22) #3
  %24 = call noundef ptr @_ZN6duckdb19const_data_ptr_castIcEEPKhPKT_(ptr noundef %23)
  %25 = load ptr, ptr %9, align 8, !tbaa !167
  %26 = call noundef i64 @_ZNKSt7__cxx1112basic_stringIcSt11char_traitsIcESaIcEE4sizeEv(ptr noundef nonnull align 8 dereferenceable(32) %25) #3
  %27 = load ptr, ptr %10, align 8, !tbaa !167
  %28 = call noundef ptr @_ZNKSt7__cxx1112basic_stringIcSt11char_traitsIcESaIcEE5c_strEv(ptr noundef nonnull align 8 dereferenceable(32) %27) #3
  %29 = call noundef ptr @_ZN6duckdb19const_data_ptr_castIcEEPKhPKT_(ptr noundef %28)
  %30 = load ptr, ptr %10, align 8, !tbaa !167
  %31 = call noundef i64 @_ZNKSt7__cxx1112basic_stringIcSt11char_traitsIcESaIcEE4sizeEv(ptr noundef nonnull align 8 dereferenceable(32) %30) #3
  %32 = load ptr, ptr %8, align 8, !tbaa !679
  %33 = getelementptr inbounds nuw %"class.duckdb::ConstantFilter", ptr %32, i32 0, i32 1
  %34 = load i8, ptr %33, align 1, !tbaa !681
  %35 = load ptr, ptr %8, align 8, !tbaa !679
  %36 = getelementptr inbounds nuw %"class.duckdb::ConstantFilter", ptr %35, i32 0, i32 2
  %37 = call noundef nonnull align 8 dereferenceable(32) ptr @_ZN6duckdb11StringValue3GetB5cxx11ERKNS_5ValueE(ptr noundef nonnull align 8 dereferenceable(64) %36)
  %38 = call noundef zeroext i8 @_ZN6duckdb11StringStats12CheckZonemapEPKhmS2_mNS_14ExpressionTypeERKNSt7__cxx1112basic_stringIcSt11char_traitsIcESaIcEEE(ptr noundef %24, i64 noundef %26, ptr noundef %29, i64 noundef %31, i8 noundef zeroext %34, ptr noundef nonnull align 8 dereferenceable(32) %37)
  store i8 %38, ptr %4, align 1
  call void @llvm.lifetime.end.p0(i64 8, ptr %10) #3
  call void @llvm.lifetime.end.p0(i64 8, ptr %9) #3
  call void @llvm.lifetime.end.p0(i64 8, ptr %8) #3
  br label %46

39:                                               ; preds = %3
  %40 = load ptr, ptr %7, align 8, !tbaa !641
  %41 = load ptr, ptr %5, align 8, !tbaa !361
  %42 = load ptr, ptr %40, align 8, !tbaa !464
  %43 = getelementptr inbounds ptr, ptr %42, i64 2
  %44 = load ptr, ptr %43, align 8
  %45 = call noundef zeroext i8 %44(ptr noundef nonnull align 8 dereferenceable(9) %40, ptr noundef nonnull align 8 dereferenceable(88) %41)
  store i8 %45, ptr %4, align 1
  br label %46

46:                                               ; preds = %39, %15
  %47 = load i8, ptr %4, align 1
  ret i8 %47
}