; Function Attrs: mustprogress uwtable
define internal fastcc noundef zeroext i8 @_ZN6duckdbL24CheckParquetStringFilterERNS_14BaseStatisticsERKN14duckdb_parquet10StatisticsERNS_11TableFilterE(ptr noundef nonnull align 8 dereferenceable(88) %0, ptr noundef nonnull readonly align 8 captures(none) dereferenceable(155) %1, ptr noundef nonnull align 8 dereferenceable(9) %2) unnamed_addr #3 {
  %4 = getelementptr inbounds nuw i8, ptr %2, i64 8
  %5 = load i8, ptr %4, align 8, !tbaa !640
  %6 = icmp eq i8 %5, 0
  br i1 %6, label %7, label %22

7:                                                ; preds = %3
  %8 = tail call noundef nonnull align 8 dereferenceable(80) ptr @_ZN6duckdb11TableFilter4CastINS_14ConstantFilterEEERT_v(ptr noundef nonnull align 8 dereferenceable(9) %2)
  %9 = getelementptr inbounds nuw i8, ptr %1, i64 120
  %10 = getelementptr inbounds nuw i8, ptr %1, i64 88
  %11 = load ptr, ptr %9, align 8, !tbaa !39
  %12 = getelementptr inbounds nuw i8, ptr %1, i64 128
  %13 = load i64, ptr %12, align 8, !tbaa !40
  %14 = load ptr, ptr %10, align 8, !tbaa !39
  %15 = getelementptr inbounds nuw i8, ptr %1, i64 96
  %16 = load i64, ptr %15, align 8, !tbaa !40
  %17 = getelementptr inbounds nuw i8, ptr %8, i64 9
  %18 = load i8, ptr %17, align 1, !tbaa !645
  %19 = getelementptr inbounds nuw i8, ptr %8, i64 16
  %20 = tail call noundef nonnull align 8 dereferenceable(32) ptr @_ZN6duckdb11StringValue3GetB5cxx11ERKNS_5ValueE(ptr noundef nonnull align 8 dereferenceable(64) %19)
  %21 = tail call noundef zeroext i8 @_ZN6duckdb11StringStats12CheckZonemapEPKhmS2_mNS_14ExpressionTypeERKNSt7__cxx1112basic_stringIcSt11char_traitsIcESaIcEEE(ptr noundef %11, i64 noundef %13, ptr noundef %14, i64 noundef %16, i8 noundef zeroext %18, ptr noundef nonnull align 8 dereferenceable(32) %20)
  br label %27

22:                                               ; preds = %3
  %23 = load ptr, ptr %2, align 8, !tbaa !179
  %24 = getelementptr inbounds nuw i8, ptr %23, i64 16
  %25 = load ptr, ptr %24, align 8
  %26 = tail call noundef zeroext i8 %25(ptr noundef nonnull align 8 dereferenceable(9) %2, ptr noundef nonnull align 8 dereferenceable(88) %0)
  br label %27

27:                                               ; preds = %22, %7
  %.0 = phi i8 [ %21, %7 ], [ %26, %22 ]
  ret i8 %.0
}